target datalayout = "e-m:e-p270:32:32-p271:32:32-p272:64:64-i64:64-i128:128-f80:128-n8:16:32:64-S128"
target triple = "x86_64-pc-linux-gnu"

%struct._zend_executor_globals = type { %struct._zval_struct, %struct._zval_struct, [32 x ptr], ptr, ptr, %struct._zend_array, %struct._zend_array, ptr, i32, i32, ptr, ptr, ptr, ptr, ptr, ptr, i64, ptr, ptr, i32, i32, i64, i32, i32, i32, i8, i8, %struct.zend_atomic_bool_s, %struct.zend_atomic_bool_s, ptr, i64, ptr, ptr, %struct._zend_array, %struct._zend_array, i32, i8, %struct._zval_struct, %struct._zval_struct, %struct._zend_stack, %struct._zend_stack, %struct._zend_stack, ptr, i32, i32, i64, ptr, ptr, ptr, %struct._zend_objects_store, ptr, ptr, ptr, [3 x %struct._zend_op], ptr, i8, i8, i64, i32, i32, ptr, [16 x %struct._HashTableIterator], ptr, %union._zend_function, %struct._zend_op, %struct._zend_array, i64, %struct.zend_get_gc_buffer, ptr, ptr, ptr, i64, i8, i32, ptr, ptr, i64, %struct._zend_call_stack, i64, i64, [6 x ptr] }
%struct.zend_atomic_bool_s = type { i8 }
%struct._zval_struct = type { %union._zend_value, %union.anon.9, %union.anon.12 }
%union._zend_value = type { i64 }
%union.anon.9 = type { i32 }
%union.anon.12 = type { i32 }
%struct._zend_stack = type { i32, i32, i32, ptr }
%struct._zend_objects_store = type { ptr, i32, i32, i32 }
%struct._HashTableIterator = type { ptr, i32, i32 }
%union._zend_function = type { %struct._zend_op_array }
%struct._zend_op_array = type { i8, [3 x i8], i32, ptr, ptr, ptr, i32, i32, ptr, ptr, ptr, ptr, i32, i32, i32, i32, ptr, ptr, ptr, ptr, ptr, i32, i32, ptr, ptr, ptr, i32, i32, i32, i32, ptr, ptr, [6 x ptr] }
%struct._zend_op = type { ptr, %union._znode_op, %union._znode_op, %union._znode_op, i32, i32, i8, i8, i8, i8 }
%union._znode_op = type { i32 }
%struct._zend_array = type { %struct._zend_refcounted_h, %union.anon.1, i32, %union.anon.2, i32, i32, i32, i32, i64, ptr }
%struct._zend_refcounted_h = type { i32, %union.anon.0 }
%union.anon.0 = type { i32 }
%union.anon.1 = type { i32 }
%union.anon.2 = type { ptr }
%struct.zend_get_gc_buffer = type { ptr, ptr, ptr }
%struct._zend_call_stack = type { ptr, i64 }
%struct._zend_fcall_info_cache = type { ptr, ptr, ptr, ptr, ptr }
%struct.anon.13 = type { i8, [3 x i8], i32, ptr, ptr, ptr, i32, i32, ptr, ptr, ptr, ptr, i32 }

@executor_globals = external global %struct._zend_executor_globals, align 8
@empty_fcall_info_cache = external constant %struct._zend_fcall_info_cache, align 8

; Function Attrs: nounwind uwtable
define internal void @xml_set_handler(ptr noundef %0, ptr noundef %1) #0 {
  %3 = alloca ptr, align 8
  %4 = alloca ptr, align 8
  %5 = alloca ptr, align 8
  %6 = alloca ptr, align 8
  %7 = alloca ptr, align 8
  %8 = alloca ptr, align 8
  %9 = alloca ptr, align 8
  %10 = alloca ptr, align 8
  %11 = alloca ptr, align 8
  %12 = alloca ptr, align 8
  %13 = alloca ptr, align 8
  %14 = alloca ptr, align 8
  %15 = alloca ptr, align 8
  store ptr %0, ptr %14, align 8
  store ptr %1, ptr %15, align 8
  %16 = load ptr, ptr %14, align 8
  %17 = getelementptr inbounds %struct._zend_fcall_info_cache, ptr %16, i32 0, i32 0
  %18 = load ptr, ptr %17, align 8
  %19 = icmp ne ptr %18, null
  br i1 %19, label %20, label %87

20:                                               ; preds = %2
  %21 = load ptr, ptr %14, align 8
  store ptr %21, ptr %13, align 8
  %22 = load ptr, ptr %13, align 8
  %23 = load ptr, ptr %22, align 8
  %24 = icmp ne ptr %23, null
  call void @llvm.assume(i1 %24)
  %25 = load ptr, ptr %13, align 8
  %26 = getelementptr inbounds %struct._zend_fcall_info_cache, ptr %25, i32 0, i32 3
  %27 = load ptr, ptr %26, align 8
  %28 = icmp ne ptr %27, null
  br i1 %28, label %29, label %53

29:                                               ; preds = %20
  %30 = load ptr, ptr %13, align 8
  %31 = getelementptr inbounds %struct._zend_fcall_info_cache, ptr %30, i32 0, i32 3
  %32 = load ptr, ptr %31, align 8
  store ptr %32, ptr %12, align 8
  %33 = load ptr, ptr %12, align 8
  store ptr %33, ptr %9, align 8
  %34 = load ptr, ptr %9, align 8
  %35 = load i32, ptr %34, align 4
  %36 = icmp ugt i32 %35, 0
  call void @llvm.assume(i1 %36)
  %37 = load ptr, ptr %9, align 8
  %38 = load i32, ptr %37, align 4
  %39 = add i32 %38, -1
  store i32 %39, ptr %37, align 4
  %40 = icmp eq i32 %39, 0
  br i1 %40, label %41, label %43

41:                                               ; preds = %29
  %42 = load ptr, ptr %12, align 8
  call void @zend_objects_store_del(ptr noundef %42) #11
  br label %52

43:                                               ; preds = %29
  %44 = load ptr, ptr %12, align 8
  %45 = getelementptr inbounds %struct._zend_refcounted_h, ptr %44, i32 0, i32 1
  %46 = load i32, ptr %45, align 4
  %47 = and i32 %46, -1008
  %48 = icmp eq i32 %47, 0
  br i1 %48, label %49, label %51

49:                                               ; preds = %43
  %50 = load ptr, ptr %12, align 8
  call void @gc_possible_root(ptr noundef %50) #11
  br label %51

51:                                               ; preds = %49, %43
  br label %52

52:                                               ; preds = %51, %41
  br label %53

53:                                               ; preds = %52, %20
  %54 = load ptr, ptr %13, align 8
  call void @zend_release_fcall_info_cache(ptr noundef %54) #11
  %55 = load ptr, ptr %13, align 8
  %56 = getelementptr inbounds %struct._zend_fcall_info_cache, ptr %55, i32 0, i32 4
  %57 = load ptr, ptr %56, align 8
  %58 = icmp ne ptr %57, null
  br i1 %58, label %59, label %83

59:                                               ; preds = %53
  %60 = load ptr, ptr %13, align 8
  %61 = getelementptr inbounds %struct._zend_fcall_info_cache, ptr %60, i32 0, i32 4
  %62 = load ptr, ptr %61, align 8
  store ptr %62, ptr %11, align 8
  %63 = load ptr, ptr %11, align 8
  store ptr %63, ptr %10, align 8
  %64 = load ptr, ptr %10, align 8
  %65 = load i32, ptr %64, align 4
  %66 = icmp ugt i32 %65, 0
  call void @llvm.assume(i1 %66)
  %67 = load ptr, ptr %10, align 8
  %68 = load i32, ptr %67, align 4
  %69 = add i32 %68, -1
  store i32 %69, ptr %67, align 4
  %70 = icmp eq i32 %69, 0
  br i1 %70, label %71, label %73

71:                                               ; preds = %59
  %72 = load ptr, ptr %11, align 8
  call void @zend_objects_store_del(ptr noundef %72) #11
  br label %82

73:                                               ; preds = %59
  %74 = load ptr, ptr %11, align 8
  %75 = getelementptr inbounds %struct._zend_refcounted_h, ptr %74, i32 0, i32 1
  %76 = load i32, ptr %75, align 4
  %77 = and i32 %76, -1008
  %78 = icmp eq i32 %77, 0
  br i1 %78, label %79, label %81

79:                                               ; preds = %73
  %80 = load ptr, ptr %11, align 8
  call void @gc_possible_root(ptr noundef %80) #11
  br label %81

81:                                               ; preds = %79, %73
  br label %82

82:                                               ; preds = %81, %71
  br label %83

83:                                               ; preds = %82, %53
  %84 = load ptr, ptr %13, align 8
  call void @llvm.memcpy.p0.p0.i64(ptr align 8 %84, ptr align 8 @empty_fcall_info_cache, i64 40, i1 false)
  %85 = load ptr, ptr %14, align 8
  %86 = getelementptr inbounds %struct._zend_fcall_info_cache, ptr %85, i32 0, i32 0
  store ptr null, ptr %86, align 8
  br label %87

87:                                               ; preds = %83, %2
  %88 = load ptr, ptr %15, align 8
  %89 = getelementptr inbounds %struct._zend_fcall_info_cache, ptr %88, i32 0, i32 0
  %90 = load ptr, ptr %89, align 8
  %91 = icmp ne ptr %90, null
  br i1 %91, label %92, label %142

92:                                               ; preds = %87
  %93 = load ptr, ptr %14, align 8
  %94 = load ptr, ptr %15, align 8
  store ptr %93, ptr %7, align 8
  store ptr %94, ptr %8, align 8
  %95 = load ptr, ptr %7, align 8
  %96 = load ptr, ptr %8, align 8
  call void @llvm.memcpy.p0.p0.i64(ptr align 8 %95, ptr align 8 %96, i64 40, i1 false)
  %97 = load ptr, ptr %7, align 8
  store ptr %97, ptr %5, align 8
  %98 = load ptr, ptr %5, align 8
  %99 = load ptr, ptr %98, align 8
  %100 = icmp ne ptr %99, null
  br i1 %100, label %101, label %102

101:                                              ; preds = %92
  br label %102

102:                                              ; preds = %101, %92
  %103 = phi i1 [ false, %92 ], [ true, %101 ]
  call void @llvm.assume(i1 %103)
  %104 = load ptr, ptr %5, align 8
  %105 = load ptr, ptr %104, align 8
  %106 = icmp eq ptr %105, getelementptr inbounds (%struct._zend_executor_globals, ptr @executor_globals, i32 0, i32 63)
  br i1 %106, label %107, label %117

107:                                              ; preds = %102
  %108 = call noalias ptr @_emalloc_256() #11
  store ptr %108, ptr %6, align 8
  %109 = load ptr, ptr %6, align 8
  %110 = load ptr, ptr %5, align 8
  %111 = load ptr, ptr %110, align 8
  call void @llvm.memcpy.p0.p0.i64(ptr align 8 %109, ptr align 8 %111, i64 240, i1 false)
  %112 = load ptr, ptr %5, align 8
  %113 = load ptr, ptr %112, align 8
  %114 = getelementptr inbounds %struct.anon.13, ptr %113, i32 0, i32 3
  store ptr null, ptr %114, align 8
  %115 = load ptr, ptr %6, align 8
  %116 = load ptr, ptr %5, align 8
  store ptr %115, ptr %116, align 8
  br label %117

117:                                              ; preds = %107, %102
  %118 = load ptr, ptr %5, align 8
  %119 = getelementptr inbounds %struct._zend_fcall_info_cache, ptr %118, i32 0, i32 3
  %120 = load ptr, ptr %119, align 8
  %121 = icmp ne ptr %120, null
  br i1 %121, label %122, label %129

122:                                              ; preds = %117
  %123 = load ptr, ptr %5, align 8
  %124 = getelementptr inbounds %struct._zend_fcall_info_cache, ptr %123, i32 0, i32 3
  %125 = load ptr, ptr %124, align 8
  store ptr %125, ptr %3, align 8
  %126 = load ptr, ptr %3, align 8
  %127 = load i32, ptr %126, align 4
  %128 = add i32 %127, 1
  store i32 %128, ptr %126, align 4
  br label %129

129:                                              ; preds = %122, %117
  %130 = load ptr, ptr %5, align 8
  %131 = getelementptr inbounds %struct._zend_fcall_info_cache, ptr %130, i32 0, i32 4
  %132 = load ptr, ptr %131, align 8
  %133 = icmp ne ptr %132, null
  br i1 %133, label %134, label %141

134:                                              ; preds = %129
  %135 = load ptr, ptr %5, align 8
  %136 = getelementptr inbounds %struct._zend_fcall_info_cache, ptr %135, i32 0, i32 4
  %137 = load ptr, ptr %136, align 8
  store ptr %137, ptr %4, align 8
  %138 = load ptr, ptr %4, align 8
  %139 = load i32, ptr %138, align 4
  %140 = add i32 %139, 1
  store i32 %140, ptr %138, align 4
  br label %141

141:                                              ; preds = %134, %129
  br label %142

142:                                              ; preds = %141, %87
  ret void
}