; Function Attrs: nounwind uwtable
define internal fastcc void @xml_set_handler(ptr noundef %0, ptr nocapture noundef readonly %1) unnamed_addr #0 {
  %3 = load ptr, ptr %0, align 8
  %.not = icmp eq ptr %3, null
  br i1 %.not, label %35, label %4

4:                                                ; preds = %2
  %5 = getelementptr inbounds i8, ptr %0, i64 24
  %6 = load ptr, ptr %5, align 8
  %.not44 = icmp eq ptr %6, null
  br i1 %.not44, label %19, label %7

7:                                                ; preds = %4
  %8 = load i32, ptr %6, align 4
  %9 = icmp ne i32 %8, 0
  tail call void @llvm.assume(i1 %9)
  %10 = add i32 %8, -1
  store i32 %10, ptr %6, align 4
  %11 = icmp eq i32 %10, 0
  br i1 %11, label %12, label %13

12:                                               ; preds = %7
  tail call void @zend_objects_store_del(ptr noundef nonnull %6) #16
  br label %19

13:                                               ; preds = %7
  %14 = getelementptr inbounds i8, ptr %6, i64 4
  %15 = load i32, ptr %14, align 4
  %16 = and i32 %15, -1008
  %17 = icmp eq i32 %16, 0
  br i1 %17, label %18, label %19

18:                                               ; preds = %13
  tail call void @gc_possible_root(ptr noundef nonnull %6) #16
  br label %19

19:                                               ; preds = %12, %18, %13, %4
  tail call void @zend_release_fcall_info_cache(ptr noundef nonnull %0) #16
  %20 = getelementptr inbounds i8, ptr %0, i64 32
  %21 = load ptr, ptr %20, align 8
  %.not45 = icmp eq ptr %21, null
  br i1 %.not45, label %34, label %22

22:                                               ; preds = %19
  %23 = load i32, ptr %21, align 4
  %24 = icmp ne i32 %23, 0
  tail call void @llvm.assume(i1 %24)
  %25 = add i32 %23, -1
  store i32 %25, ptr %21, align 4
  %26 = icmp eq i32 %25, 0
  br i1 %26, label %27, label %28

27:                                               ; preds = %22
  tail call void @zend_objects_store_del(ptr noundef nonnull %21) #16
  br label %34

28:                                               ; preds = %22
  %29 = getelementptr inbounds i8, ptr %21, i64 4
  %30 = load i32, ptr %29, align 4
  %31 = and i32 %30, -1008
  %32 = icmp eq i32 %31, 0
  br i1 %32, label %33, label %34

33:                                               ; preds = %28
  tail call void @gc_possible_root(ptr noundef nonnull %21) #16
  br label %34

34:                                               ; preds = %27, %33, %28, %19
  tail call void @llvm.memcpy.p0.p0.i64(ptr noundef nonnull align 8 dereferenceable(40) %0, ptr noundef nonnull align 8 dereferenceable(40) @empty_fcall_info_cache, i64 40, i1 false)
  store ptr null, ptr %0, align 8
  br label %35

35:                                               ; preds = %34, %2
  %36 = load ptr, ptr %1, align 8
  %.not46 = icmp eq ptr %36, null
  br i1 %.not46, label %56, label %37

37:                                               ; preds = %35
  tail call void @llvm.memcpy.p0.p0.i64(ptr noundef nonnull align 8 dereferenceable(40) %0, ptr noundef nonnull align 8 dereferenceable(40) %1, i64 40, i1 false)
  %38 = load ptr, ptr %0, align 8, !nonnull !4, !noundef !4
  %39 = icmp eq ptr %38, getelementptr inbounds (%struct._zend_executor_globals, ptr @executor_globals, i64 0, i32 63)
  br i1 %39, label %40, label %44

40:                                               ; preds = %37
  %41 = tail call noalias ptr @_emalloc_256() #16
  %42 = load ptr, ptr %0, align 8
  tail call void @llvm.memcpy.p0.p0.i64(ptr noundef nonnull align 8 dereferenceable(240) %41, ptr noundef nonnull align 8 dereferenceable(240) %42, i64 240, i1 false)
  %43 = getelementptr inbounds i8, ptr %42, i64 8
  store ptr null, ptr %43, align 8
  store ptr %41, ptr %0, align 8
  br label %44

44:                                               ; preds = %40, %37
  %45 = getelementptr inbounds i8, ptr %0, i64 24
  %46 = load ptr, ptr %45, align 8
  %.not47 = icmp eq ptr %46, null
  br i1 %.not47, label %50, label %47

47:                                               ; preds = %44
  %48 = load i32, ptr %46, align 4
  %49 = add i32 %48, 1
  store i32 %49, ptr %46, align 4
  br label %50

50:                                               ; preds = %47, %44
  %51 = getelementptr inbounds i8, ptr %0, i64 32
  %52 = load ptr, ptr %51, align 8
  %.not48 = icmp eq ptr %52, null
  br i1 %.not48, label %56, label %53

53:                                               ; preds = %50
  %54 = load i32, ptr %52, align 4
  %55 = add i32 %54, 1
  store i32 %55, ptr %52, align 4
  br label %56

56:                                               ; preds = %50, %53, %35
  ret void
}